target datalayout = "e-m:e-p270:32:32-p271:32:32-p272:64:64-i64:64-i128:128-f80:128-n8:16:32:64-S128"
target triple = "x86_64-pc-linux-gnu"

%struct.gie_ctx = type { [10001 x i8], [10001 x i8], [10001 x i8], ptr, %union.PJ_COORD, %union.PJ_COORD, %union.PJ_COORD, i32, i32, i32, i32, i32, i32, i32, i32, i32, i32, i32, i32, i32, i64, i64, i64, double, i32, i32, i32, ptr, ptr }
%union.PJ_COORD = type { [4 x double] }
%struct.ffio = type { ptr, ptr, ptr, ptr, ptr, i64, i64, i64, i64, i64, i64, i64, i8 }

@_ZL1T = internal global %struct.gie_ctx zeroinitializer, align 8
@.str.38 = private unnamed_addr constant [6 x i8] c"<gie>\00", align 1
@.str.55 = private unnamed_addr constant [13 x i8] c"<gie-strict>\00", align 1

; Function Attrs: mustprogress uwtable
define internal noundef i32 @_ZL8nextlineP4ffio(ptr noundef %0) #1 {
  %2 = alloca i32, align 4
  %3 = alloca ptr, align 8
  store ptr %0, ptr %3, align 8
  %4 = load ptr, ptr %3, align 8
  %5 = getelementptr inbounds %struct.ffio, ptr %4, i32 0, i32 4
  %6 = load ptr, ptr %5, align 8
  %7 = getelementptr inbounds i8, ptr %6, i64 0
  store i8 0, ptr %7, align 1
  %8 = load i32, ptr getelementptr inbounds (%struct.gie_ctx, ptr @_ZL1T, i32 0, i32 9), align 8
  %9 = icmp ne i32 %8, 0
  br i1 %9, label %10, label %11

10:                                               ; preds = %1
  store i32 0, ptr %2, align 4
  br label %42

11:                                               ; preds = %1
  %12 = load ptr, ptr %3, align 8
  %13 = getelementptr inbounds %struct.ffio, ptr %12, i32 0, i32 4
  %14 = load ptr, ptr %13, align 8
  %15 = load ptr, ptr %3, align 8
  %16 = getelementptr inbounds %struct.ffio, ptr %15, i32 0, i32 7
  %17 = load i64, ptr %16, align 8
  %18 = trunc i64 %17 to i32
  %19 = sub nsw i32 %18, 1
  %20 = load ptr, ptr %3, align 8
  %21 = getelementptr inbounds %struct.ffio, ptr %20, i32 0, i32 0
  %22 = load ptr, ptr %21, align 8
  %23 = call ptr @fgets(ptr noundef %14, i32 noundef %19, ptr noundef %22)
  %24 = icmp eq ptr null, %23
  br i1 %24, label %25, label %26

25:                                               ; preds = %11
  store i32 0, ptr %2, align 4
  br label %42

26:                                               ; preds = %11
  %27 = load ptr, ptr %3, align 8
  %28 = getelementptr inbounds %struct.ffio, ptr %27, i32 0, i32 0
  %29 = load ptr, ptr %28, align 8
  %30 = call i32 @feof(ptr noundef %29) #13
  %31 = icmp ne i32 %30, 0
  br i1 %31, label %32, label %33

32:                                               ; preds = %26
  store i32 0, ptr %2, align 4
  br label %42

33:                                               ; preds = %26
  %34 = load ptr, ptr %3, align 8
  %35 = getelementptr inbounds %struct.ffio, ptr %34, i32 0, i32 4
  %36 = load ptr, ptr %35, align 8
  %37 = call noundef ptr @_Z8pj_chompPc(ptr noundef %36)
  %38 = load ptr, ptr %3, align 8
  %39 = getelementptr inbounds %struct.ffio, ptr %38, i32 0, i32 10
  %40 = load i64, ptr %39, align 8
  %41 = add i64 %40, 1
  store i64 %41, ptr %39, align 8
  store i32 1, ptr %2, align 4
  br label %42

42:                                               ; preds = %33, %32, %25, %10
  %43 = load i32, ptr %2, align 4
  ret i32 %43
}

; Function Attrs: mustprogress uwtable
define internal noundef i32 @_ZL19step_into_gie_blockP4ffio(ptr noundef %0) #1 {
  %2 = alloca i32, align 4
  %3 = alloca ptr, align 8
  store ptr %0, ptr %3, align 8
  %4 = load ptr, ptr %3, align 8
  %5 = getelementptr inbounds %struct.ffio, ptr %4, i32 0, i32 11
  %6 = load i64, ptr %5, align 8
  %7 = urem i64 %6, 2
  %8 = icmp ne i64 %7, 0
  br i1 %8, label %9, label %10

9:                                                ; preds = %1
  store i32 1, ptr %2, align 4
  br label %47

10:                                               ; preds = %1
  br label %11

11:                                               ; preds = %30, %10
  %12 = load ptr, ptr %3, align 8
  %13 = getelementptr inbounds %struct.ffio, ptr %12, i32 0, i32 4
  %14 = load ptr, ptr %13, align 8
  %15 = call i32 @strncmp(ptr noundef %14, ptr noundef @.str.38, i64 noundef 5) #14
  %16 = icmp ne i32 %15, 0
  br i1 %16, label %17, label %23

17:                                               ; preds = %11
  %18 = load ptr, ptr %3, align 8
  %19 = getelementptr inbounds %struct.ffio, ptr %18, i32 0, i32 4
  %20 = load ptr, ptr %19, align 8
  %21 = call i32 @strncmp(ptr noundef %20, ptr noundef @.str.55, i64 noundef 12) #14
  %22 = icmp ne i32 %21, 0
  br label %23

23:                                               ; preds = %17, %11
  %24 = phi i1 [ false, %11 ], [ %22, %17 ]
  br i1 %24, label %25, label %31

25:                                               ; preds = %23
  %26 = load ptr, ptr %3, align 8
  %27 = call noundef i32 @_ZL8nextlineP4ffio(ptr noundef %26)
  %28 = icmp eq i32 0, %27
  br i1 %28, label %29, label %30

29:                                               ; preds = %25
  store i32 0, ptr %2, align 4
  br label %47

30:                                               ; preds = %25
  br label %11, !llvm.loop !28

31:                                               ; preds = %23
  %32 = load ptr, ptr %3, align 8
  %33 = getelementptr inbounds %struct.ffio, ptr %32, i32 0, i32 11
  %34 = load i64, ptr %33, align 8
  %35 = add i64 %34, 1
  store i64 %35, ptr %33, align 8
  %36 = load ptr, ptr %3, align 8
  %37 = getelementptr inbounds %struct.ffio, ptr %36, i32 0, i32 4
  %38 = load ptr, ptr %37, align 8
  %39 = call i32 @strncmp(ptr noundef %38, ptr noundef @.str.55, i64 noundef 12) #14
  %40 = icmp eq i32 %39, 0
  br i1 %40, label %41, label %44

41:                                               ; preds = %31
  %42 = load ptr, ptr %3, align 8
  %43 = getelementptr inbounds %struct.ffio, ptr %42, i32 0, i32 12
  store i8 1, ptr %43, align 8
  store i32 0, ptr %2, align 4
  br label %47

44:                                               ; preds = %31
  %45 = load ptr, ptr %3, align 8
  %46 = call noundef i32 @_ZL8nextlineP4ffio(ptr noundef %45)
  store i32 %46, ptr %2, align 4
  br label %47

47:                                               ; preds = %44, %41, %29, %9
  %48 = load i32, ptr %2, align 4
  ret i32 %48
}