; Function Attrs: mustprogress norecurse uwtable
define internal fastcc noundef i32 @_ZL19step_into_gie_blockP4ffio(ptr nocapture noundef %0) unnamed_addr #10 {
  %2 = getelementptr inbounds i8, ptr %0, i64 88
  %3 = load i64, ptr %2, align 8
  %4 = and i64 %3, 1
  %.not = icmp eq i64 %4, 0
  br i1 %.not, label %.preheader, label %_ZL8nextlineP4ffio.exit13

.preheader:                                       ; preds = %1
  %5 = getelementptr inbounds i8, ptr %0, i64 32
  %6 = load ptr, ptr %5, align 8
  %7 = tail call i32 @strncmp(ptr noundef nonnull dereferenceable(1) %6, ptr noundef nonnull dereferenceable(6) @.str.38, i64 noundef 5) #27
  %.not818 = icmp eq i32 %7, 0
  br i1 %.not818, label %.critedge, label %.lr.ph

.lr.ph:                                           ; preds = %.preheader
  %8 = getelementptr inbounds i8, ptr %0, i64 56
  %9 = getelementptr inbounds i8, ptr %0, i64 80
  br label %10

10:                                               ; preds = %.lr.ph, %_ZL8nextlineP4ffio.exit
  %11 = phi ptr [ %6, %.lr.ph ], [ %30, %_ZL8nextlineP4ffio.exit ]
  %12 = tail call i32 @strncmp(ptr noundef nonnull dereferenceable(1) %11, ptr noundef nonnull dereferenceable(13) @.str.55, i64 noundef 12) #27
  %.not9 = icmp eq i32 %12, 0
  br i1 %.not9, label %.critedge.loopexit, label %13

13:                                               ; preds = %10
  store i8 0, ptr %11, align 1
  %14 = load i32, ptr getelementptr inbounds (%struct.gie_ctx, ptr @_ZL1T, i64 0, i32 9), align 8
  %.not.i = icmp eq i32 %14, 0
  br i1 %.not.i, label %15, label %_ZL8nextlineP4ffio.exit13

15:                                               ; preds = %13
  %16 = load ptr, ptr %5, align 8
  %17 = load i64, ptr %8, align 8
  %18 = trunc i64 %17 to i32
  %19 = add nsw i32 %18, -1
  %20 = load ptr, ptr %0, align 8
  %21 = tail call ptr @fgets(ptr noundef %16, i32 noundef %19, ptr noundef %20)
  %22 = icmp eq ptr %21, null
  br i1 %22, label %_ZL8nextlineP4ffio.exit13, label %23

23:                                               ; preds = %15
  %24 = load ptr, ptr %0, align 8
  %25 = tail call i32 @feof(ptr noundef %24) #26
  %.not7.i = icmp eq i32 %25, 0
  br i1 %.not7.i, label %_ZL8nextlineP4ffio.exit, label %_ZL8nextlineP4ffio.exit13

_ZL8nextlineP4ffio.exit:                          ; preds = %23
  %26 = load ptr, ptr %5, align 8
  %27 = tail call noundef ptr @_Z8pj_chompPc(ptr noundef %26)
  %28 = load i64, ptr %9, align 8
  %29 = add i64 %28, 1
  store i64 %29, ptr %9, align 8
  %30 = load ptr, ptr %5, align 8
  %31 = tail call i32 @strncmp(ptr noundef nonnull dereferenceable(1) %30, ptr noundef nonnull dereferenceable(6) @.str.38, i64 noundef 5) #27
  %.not8 = icmp eq i32 %31, 0
  br i1 %.not8, label %.critedge.loopexit, label %10, !llvm.loop !53

.critedge.loopexit:                               ; preds = %_ZL8nextlineP4ffio.exit, %10
  %.lcssa.ph = phi ptr [ %11, %10 ], [ %30, %_ZL8nextlineP4ffio.exit ]
  %.pre = load i64, ptr %2, align 8
  br label %.critedge

.critedge:                                        ; preds = %.critedge.loopexit, %.preheader
  %32 = phi i64 [ %3, %.preheader ], [ %.pre, %.critedge.loopexit ]
  %.lcssa = phi ptr [ %6, %.preheader ], [ %.lcssa.ph, %.critedge.loopexit ]
  %33 = add i64 %32, 1
  store i64 %33, ptr %2, align 8
  %34 = tail call i32 @strncmp(ptr noundef nonnull dereferenceable(1) %.lcssa, ptr noundef nonnull dereferenceable(13) @.str.55, i64 noundef 12) #27
  %35 = icmp eq i32 %34, 0
  br i1 %35, label %36, label %38

36:                                               ; preds = %.critedge
  %37 = getelementptr inbounds i8, ptr %0, i64 96
  store i8 1, ptr %37, align 8
  br label %_ZL8nextlineP4ffio.exit13

38:                                               ; preds = %.critedge
  store i8 0, ptr %.lcssa, align 1
  %39 = load i32, ptr getelementptr inbounds (%struct.gie_ctx, ptr @_ZL1T, i64 0, i32 9), align 8
  %.not.i10 = icmp eq i32 %39, 0
  br i1 %.not.i10, label %40, label %_ZL8nextlineP4ffio.exit13

40:                                               ; preds = %38
  %41 = load ptr, ptr %5, align 8
  %42 = getelementptr inbounds i8, ptr %0, i64 56
  %43 = load i64, ptr %42, align 8
  %44 = trunc i64 %43 to i32
  %45 = add nsw i32 %44, -1
  %46 = load ptr, ptr %0, align 8
  %47 = tail call ptr @fgets(ptr noundef %41, i32 noundef %45, ptr noundef %46)
  %48 = icmp eq ptr %47, null
  br i1 %48, label %_ZL8nextlineP4ffio.exit13, label %49

49:                                               ; preds = %40
  %50 = load ptr, ptr %0, align 8
  %51 = tail call i32 @feof(ptr noundef %50) #26
  %.not7.i12 = icmp eq i32 %51, 0
  br i1 %.not7.i12, label %52, label %_ZL8nextlineP4ffio.exit13

52:                                               ; preds = %49
  %53 = load ptr, ptr %5, align 8
  %54 = tail call noundef ptr @_Z8pj_chompPc(ptr noundef %53)
  %55 = getelementptr inbounds i8, ptr %0, i64 80
  %56 = load i64, ptr %55, align 8
  %57 = add i64 %56, 1
  store i64 %57, ptr %55, align 8
  br label %_ZL8nextlineP4ffio.exit13

_ZL8nextlineP4ffio.exit13:                        ; preds = %23, %15, %13, %52, %49, %40, %38, %1, %36
  %.0 = phi i32 [ 0, %36 ], [ 1, %1 ], [ 1, %52 ], [ 0, %38 ], [ 0, %40 ], [ 0, %49 ], [ 0, %13 ], [ 0, %15 ], [ 0, %23 ]
  ret i32 %.0
}